; Function Attrs: mustprogress nofree norecurse nosync nounwind willreturn memory(argmem: write) uwtable
define void @png_save_uint_16(ptr noundef writeonly captures(none) initializes((0, 2)) %0, i32 noundef %1) local_unnamed_addr #0 {
  %3 = lshr i32 %1, 8
  %4 = trunc i32 %3 to i8
  store i8 %4, ptr %0, align 1, !tbaa !3
  %5 = trunc i32 %1 to i8
  %6 = getelementptr inbounds nuw i8, ptr %0, i64 1
  store i8 %5, ptr %6, align 1, !tbaa !3
  ret void
}